target datalayout = "e-m:e-p270:32:32-p271:32:32-p272:64:64-i64:64-i128:128-f80:128-n8:16:32:64-S128"
target triple = "x86_64-pc-linux-gnu"

%struct.rb_data_type_struct = type { ptr, %struct.anon, ptr, ptr, i64 }
%struct.anon = type { ptr, ptr, ptr, ptr, [1 x ptr] }

@ossl_x509ext_type = internal constant %struct.rb_data_type_struct { ptr @.str.24, %struct.anon { ptr null, ptr @ossl_x509ext_free, ptr null, ptr null, [1 x ptr] zeroinitializer }, ptr null, ptr null, i64 33 }, align 8
@eX509ExtError = internal global i64 0, align 8
@rb_eRuntimeError = external global i64, align 8
@.str = private unnamed_addr constant [24 x i8] c"EXT wasn't initialized!\00", align 1
@.str.43 = private unnamed_addr constant [12 x i8] c"OBJ_txt2obj\00", align 1
@.str.44 = private unnamed_addr constant [26 x i8] c"X509_EXTENSION_set_object\00", align 1

; Function Attrs: nounwind sspstrong uwtable
define internal i64 @ossl_x509ext_set_oid(i64 noundef %0, i64 noundef %1) #0 {
  %3 = alloca i64, align 8
  %4 = alloca i64, align 8
  %5 = alloca ptr, align 8
  %6 = alloca ptr, align 8
  store i64 %0, ptr %3, align 8, !tbaa !11
  store i64 %1, ptr %4, align 8, !tbaa !11
  call void @llvm.lifetime.start.p0(i64 8, ptr %5) #17
  call void @llvm.lifetime.start.p0(i64 8, ptr %6) #17
  br label %7

7:                                                ; preds = %2
  %8 = load i64, ptr %3, align 8, !tbaa !11
  %9 = call ptr @rb_check_typeddata(i64 noundef %8, ptr noundef @ossl_x509ext_type)
  store ptr %9, ptr %5, align 8, !tbaa !6
  %10 = load ptr, ptr %5, align 8, !tbaa !6
  %11 = icmp ne ptr %10, null
  br i1 %11, label %14, label %12

12:                                               ; preds = %7
  %13 = load i64, ptr @rb_eRuntimeError, align 8, !tbaa !11
  call void (i64, ptr, ...) @ossl_raise(i64 noundef %13, ptr noundef @.str) #18
  unreachable

14:                                               ; preds = %7
  br label %15

15:                                               ; preds = %14
  br label %16

16:                                               ; preds = %15
  %17 = call ptr @rb_string_value_cstr(ptr noundef %4)
  %18 = call ptr @OBJ_txt2obj(ptr noundef %17, i32 noundef 0)
  store ptr %18, ptr %6, align 8, !tbaa !40
  %19 = load ptr, ptr %6, align 8, !tbaa !40
  %20 = icmp ne ptr %19, null
  br i1 %20, label %23, label %21

21:                                               ; preds = %16
  %22 = load i64, ptr @eX509ExtError, align 8, !tbaa !11
  call void (i64, ptr, ...) @ossl_raise(i64 noundef %22, ptr noundef @.str.43) #18
  unreachable

23:                                               ; preds = %16
  %24 = load ptr, ptr %5, align 8, !tbaa !6
  %25 = load ptr, ptr %6, align 8, !tbaa !40
  %26 = call i32 @X509_EXTENSION_set_object(ptr noundef %24, ptr noundef %25)
  %27 = icmp ne i32 %26, 0
  br i1 %27, label %31, label %28

28:                                               ; preds = %23
  %29 = load ptr, ptr %6, align 8, !tbaa !40
  call void @ASN1_OBJECT_free(ptr noundef %29)
  %30 = load i64, ptr @eX509ExtError, align 8, !tbaa !11
  call void (i64, ptr, ...) @ossl_raise(i64 noundef %30, ptr noundef @.str.44) #18
  unreachable

31:                                               ; preds = %23
  %32 = load ptr, ptr %6, align 8, !tbaa !40
  call void @ASN1_OBJECT_free(ptr noundef %32)
  %33 = load i64, ptr %4, align 8, !tbaa !11
  call void @llvm.lifetime.end.p0(i64 8, ptr %6) #17
  call void @llvm.lifetime.end.p0(i64 8, ptr %5) #17
  ret i64 %33
}