; Function Attrs: nounwind sspstrong uwtable
define internal i64 @ossl_x509ext_set_oid(i64 noundef %0, i64 noundef %1) #0 {
  %3 = alloca i64, align 8
  store i64 %1, ptr %3, align 8, !tbaa !6
  %4 = tail call ptr @rb_check_typeddata(i64 noundef %0, ptr noundef nonnull @ossl_x509ext_type) #5
  %.not = icmp eq ptr %4, null
  br i1 %.not, label %5, label %7

5:                                                ; preds = %2
  %6 = load i64, ptr @rb_eRuntimeError, align 8, !tbaa !6
  tail call void (i64, ptr, ...) @ossl_raise(i64 noundef %6, ptr noundef nonnull @.str) #6
  unreachable

7:                                                ; preds = %2
  %8 = call ptr @rb_string_value_cstr(ptr noundef nonnull %3) #5
  %9 = call ptr @OBJ_txt2obj(ptr noundef %8, i32 noundef 0) #5
  %.not7 = icmp eq ptr %9, null
  br i1 %.not7, label %10, label %12

10:                                               ; preds = %7
  %11 = load i64, ptr @eX509ExtError, align 8, !tbaa !6
  call void (i64, ptr, ...) @ossl_raise(i64 noundef %11, ptr noundef nonnull @.str.43) #6
  unreachable

12:                                               ; preds = %7
  %13 = call i32 @X509_EXTENSION_set_object(ptr noundef nonnull %4, ptr noundef nonnull %9) #5
  %.not8 = icmp eq i32 %13, 0
  call void @ASN1_OBJECT_free(ptr noundef nonnull %9) #5
  br i1 %.not8, label %14, label %16

14:                                               ; preds = %12
  %15 = load i64, ptr @eX509ExtError, align 8, !tbaa !6
  call void (i64, ptr, ...) @ossl_raise(i64 noundef %15, ptr noundef nonnull @.str.44) #6
  unreachable

16:                                               ; preds = %12
  %17 = load i64, ptr %3, align 8, !tbaa !6
  ret i64 %17
}